; Function Attrs: mustprogress nounwind uwtable
define internal fastcc void @_ZN5clang19RecursiveASTVisitorIN12_GLOBAL__N_111TypeIndexerEE28TraverseAssertSharedLockAttrEPNS_20AssertSharedLockAttrE(ptr noundef nonnull readonly align 1 captures(none) dereferenceable(1) %0, i32 %.36.val, ptr readonly %.40.val) unnamed_addr #0 align 2 {
  %2 = zext i32 %.36.val to i64
  %3 = getelementptr inbounds nuw ptr, ptr %.40.val, i64 %2
  %.not1 = icmp eq i32 %.36.val, 0
  br i1 %.not1, label %._crit_edge, label %.lr.ph

.lr.ph:                                           ; preds = %1
  %4 = getelementptr inbounds nuw i8, ptr %0, i64 8
  %5 = getelementptr inbounds nuw i8, ptr %0, i64 16
  br label %6

6:                                                ; preds = %.lr.ph, %6
  %.0102 = phi ptr [ %.40.val, %.lr.ph ], [ %11, %6 ]
  %7 = load ptr, ptr %.0102, align 8
  %8 = load ptr, ptr %0, align 8
  %9 = load ptr, ptr %4, align 8
  %10 = load ptr, ptr %5, align 8
  tail call void @_ZN5clang5index15IndexingContext9indexBodyEPKNS_4StmtEPKNS_9NamedDeclEPKNS_11DeclContextE(ptr noundef nonnull align 8 dereferenceable(64) %8, ptr noundef %7, ptr noundef %9, ptr noundef %10) #13
  %11 = getelementptr inbounds nuw i8, ptr %.0102, i64 8
  %.not = icmp eq ptr %11, %3
  br i1 %.not, label %._crit_edge, label %6, !llvm.loop !42

._crit_edge:                                      ; preds = %6, %1
  ret void
}